; Function Attrs: nounwind uwtable
define internal range(i32 0, 2) i32 @check_cfq_new_token(ptr noundef readonly captures(none) %0) #0 {
  %2 = getelementptr inbounds nuw i8, ptr %0, i64 1128
  %3 = load ptr, ptr %2, align 8, !tbaa !64
  %4 = getelementptr inbounds nuw i8, ptr %0, i64 1136
  %5 = load i64, ptr %4, align 8, !tbaa !64
  %6 = tail call i32 @test_mem_eq(ptr noundef nonnull @.str.2, i32 noundef 537, ptr noundef nonnull @.str.125, ptr noundef nonnull @.str.126, ptr noundef %3, i64 noundef %5, ptr noundef nonnull @token_1, i64 noundef 6) #8
  %.not = icmp ne i32 %6, 0
  %. = zext i1 %.not to i32
  ret i32 %.
}